; Function Attrs: mustprogress uwtable
define void @_ZN3zmq15ipc_connecter_tC2EPNS_11io_thread_tEPNS_14session_base_tERKNS_9options_tEPNS_9address_tEb(ptr noundef nonnull align 8 dereferenceable(1544) %this, ptr noundef %io_thread_, ptr noundef %session_, ptr noundef nonnull align 8 dereferenceable(1336) %options_, ptr noundef %addr_, i1 noundef zeroext %delayed_start_) unnamed_addr #0 align 2 personality ptr @__gxx_personality_v0 {
entry:
  tail call void @_ZN3zmq23stream_connecter_base_tC2EPNS_11io_thread_tEPNS_14session_base_tERKNS_9options_tEPNS_9address_tEb(ptr noundef nonnull align 8 dereferenceable(1544) %this, ptr noundef %io_thread_, ptr noundef %session_, ptr noundef nonnull align 8 dereferenceable(1336) %options_, ptr noundef %addr_, i1 noundef zeroext %delayed_start_)
  store ptr getelementptr inbounds ({ [31 x ptr], [7 x ptr] }, ptr @_ZTVN3zmq15ipc_connecter_tE, i64 0, i32 0, i64 2), ptr %this, align 8
  %add.ptr = getelementptr inbounds i8, ptr %this, i64 1448
  store ptr getelementptr inbounds ({ [31 x ptr], [7 x ptr] }, ptr @_ZTVN3zmq15ipc_connecter_tE, i64 0, i32 1, i64 2), ptr %add.ptr, align 8
  %_addr = getelementptr inbounds i8, ptr %this, i64 1464
  %0 = load ptr, ptr %_addr, align 8
  %call.i = tail call noundef i32 @_ZNKSt7__cxx1112basic_stringIcSt11char_traitsIcESaIcEE7compareEPKc(ptr noundef nonnull align 8 dereferenceable(32) %0, ptr noundef nonnull @_ZN3zmq13protocol_nameL3ipcE) #9
  %cmp.i = icmp eq i32 %call.i, 0
  br i1 %cmp.i, label %do.end, label %if.then

if.then:                                          ; preds = %entry
  %1 = load ptr, ptr @stderr, align 8
  %call3 = tail call i32 (ptr, ptr, ...) @fprintf(ptr noundef %1, ptr noundef nonnull @.str, ptr noundef nonnull @.str.1, ptr noundef nonnull @.str.2, i32 noundef 36) #10
  %2 = load ptr, ptr @stderr, align 8
  %call5 = tail call i32 @fflush(ptr noundef %2)
  invoke void @_ZN3zmq9zmq_abortEPKc(ptr noundef nonnull @.str.1)
          to label %do.end unwind label %lpad

lpad:                                             ; preds = %if.then
  %3 = landingpad { ptr, i32 }
          cleanup
  tail call void @_ZN3zmq23stream_connecter_base_tD2Ev(ptr noundef nonnull align 8 dereferenceable(1544) %this) #9
  resume { ptr, i32 } %3

do.end:                                           ; preds = %if.then, %entry
  ret void
}